(dp0
S'cookies'
p1
(dp2
S'wxloadtime'
p3
S'1506323882'
p4
sS'webwx_data_ticket'
p5
S'gSfOPP8Tp/LdiYh1KmbYK9VH'
p6
sS'wxuin'
p7
S'360625759'
p8
sS'login_frequency'
p9
S'2'
p10
sS'MM_WX_NOTIFY_STATE'
p11
S'1'
p12
sS'MM_WX_SOUND_STATE'
p13
g12
sS'webwx_auth_ticket'
p14
S'CIsBELnfu68DGoABKVuBYAyKCr4BWjv+jB5XXZNYkZAO7k+DvHgmCrn4e7JCjB6cKlaBk5GT3ng8a3O8Zja6goz3PNfAHFejDsIVHhIVSGQv3CMotK8SHCSum1SeEh4LoXicID1pOLNd3Mqx2MqBND2LRvbqqxsuugTRXLhzrg+HXyKLkduRfcvTnBU='
p15
sS'last_wxuin'
p16
S'360625759'
p17
sS'webwxuvid'
p18
S'acc0e080965b28c4df1936089ec05dff6217bca05bb20862fbc2bd6ac181beb66923748b525e9aa26e32c5636fe3d421'
p19
sS'wxpluginkey'
p20
S'1506318276_expired'
p21
sS'wxsid'
p22
S'hK8q6Sd2kzJGAq+Z'
p23
sS'mm_lang'
p24
S'zh_CN'
p25
ssS'version'
p26
S'1.3.9'
p27
sS'storage'
p28
(dp29
S'userName'
p30
V@54e10cefeb0c0a14edc793e558532635310fade8f207808b95a41d937d8e4877
p31
sS'lastInputUserName'
p32
NsS'memberList'
p33
ccopy_reg
_reconstructor
p34
(citchat.storage.templates
ContactList
p35
c__builtin__
list
p36
(lp37
g34
(citchat.storage.templates
User
p38
c__builtin__
dict
p39
(dp40
S'UserName'
p41
g31
sS'City'
p42
S''
p43
sS'DisplayName'
p44
g43
sS'UniFriend'
p45
I0
sS'OwnerUin'
p46
I0
sS'MemberList'
p47
g34
(g35
g36
(lp48
tp49
Rp50
I1
bsS'PYQuanPin'
p51
V
p52
sS'RemarkPYInitial'
p53
g52
sS'Uin'
p54
I360625759
sS'AppAccountFlag'
p55
I0
sS'VerifyFlag'
p56
I0
sS'Province'
p57
g43
sS'KeyWord'
p58
g43
sS'RemarkName'
p59
g52
sS'PYInitial'
p60
g52
sS'ChatRoomId'
p61
I0
sS'HideInputBarFlag'
p62
I0
sVHeadImgFlag
p63
I1
sS'EncryChatRoomId'
p64
g43
sS'AttrStatus'
p65
I0
sS'SnsFlag'
p66
I1
sS'MemberCount'
p67
I0
sVWebWxPluginSwitch
p68
I0
sS'Alias'
p69
g43
sS'Signature'
p70
g52
sS'ContactFlag'
p71
I0
sS'NickName'
p72
V\u5728\u8def\u4e0a
p73
sS'RemarkPYQuanPin'
p74
g52
sS'HeadImgUrl'
p75
V/cgi-bin/mmwebwx-bin/webwxgeticon?seq=1855775544&username=@54e10cefeb0c0a14edc793e558532635310fade8f207808b95a41d937d8e4877&skey=@crypt_853a97f_0a2b85689509f798981ed2978003af8a
p76
sS'Sex'
p77
I2
sS'StarFriend'
p78
I0
sS'Statues'
p79
I0
stp80
Rp81
I1
bag34
(g38
g39
(dp82
VUserName
p83
V@3d71a07c608e4e6a3ac08b3ba7ddb758
p84
sVCity
p85
V\u5e7f\u5dde
p86
sVSnsFlag
p87
I17
sVDisplayName
p88
g52
sVUniFriend
p89
I0
sVMemberCount
p90
I0
sVOwnerUin
p91
I0
sVMemberList
p92
g50
sVAlias
p93
g52
sVPYQuanPin
p94
Vqingchendefengchuan
p95
sVSignature
p96
g52
sVRemarkPYInitial
p97
g52
sVContactFlag
p98
I3
sVUin
p99
I0
sVNickName
p100
V\u6e05\u6668\u7684\u98ce\uff08\u5ddd\uff09
p101
sVAppAccountFlag
p102
I0
sVVerifyFlag
p103
I0
sVRemarkPYQuanPin
p104
g52
sVHeadImgUrl
p105
V/cgi-bin/mmwebwx-bin/webwxgeticon?seq=664500412&username=@3d71a07c608e4e6a3ac08b3ba7ddb758&skey=@crypt_853a97f_0a2b85689509f798981ed2978003af8a
p106
sVKeyWord
p107
Vmen
p108
sVProvince
p109
V\u5e7f\u4e1c
p110
sVPYInitial
p111
VQCDFC
p112
sVRemarkName
p113
g52
sVIsOwner
p114
I0
sVSex
p115
I1
sVStarFriend
p116
I0
sVHideInputBarFlag
p117
I0
sVChatRoomId
p118
I0
sVEncryChatRoomId
p119
g52
sVAttrStatus
p120
I12327
sVStatues
p121
I0
stp122
Rp123
I1
bag34
(g38
g39
(dp124
VUserName
p125
V@9f2b9bba1022d3db39db2b66db79de74d7865fa193d0869822886082eda18eed
p126
sVCity
p127
V\u6df1\u5733
p128
sVSnsFlag
p129
I1
sVDisplayName
p130
g52
sVUniFriend
p131
I0
sVMemberCount
p132
I0
sVOwnerUin
p133
I0
sVMemberList
p134
g50
sVAlias
p135
g52
sVPYQuanPin
p136
Vlipeiying
p137
sVSignature
p138
V\u5982\u679c\u521a\u70c8\u662f\u5728\u54ed\u6ce3\u4e2d\u953b\u70bc\u51fa\u6765\u7684\uff0c\u54ea\u4e48\u8ba9\u6211\u54ed\u4e2a\u660f\u5929\u6697\u5730\u5427
p139
sVRemarkPYInitial
p140
g52
sVContactFlag
p141
I3
sVUin
p142
I0
sVNickName
p143
V\u674e\u6c9b\u9896
p144
sVAppAccountFlag
p145
I0
sVVerifyFlag
p146
I0
sVRemarkPYQuanPin
p147
g52
sVHeadImgUrl
p148
V/cgi-bin/mmwebwx-bin/webwxgeticon?seq=664500472&username=@9f2b9bba1022d3db39db2b66db79de74d7865fa193d0869822886082eda18eed&skey=@crypt_853a97f_0a2b85689509f798981ed2978003af8a
p149
sVKeyWord
p150
g52
sVProvince
p151
V\u5e7f\u4e1c
p152
sVPYInitial
p153
VLPY
p154
sVRemarkName
p155
g52
sVIsOwner
p156
I0
sVSex
p157
I2
sVStarFriend
p158
I0
sVHideInputBarFlag
p159
I0
sVChatRoomId
p160
I0
sVEncryChatRoomId
p161
g52
sVAttrStatus
p162
I102437
sVStatues
p163
I0
stp164
Rp165
I1
batp166
Rp167
I1
bsS'chatroomList'
p168
g34
(g35
g36
(lp169
tp170
Rp171
I1
bsS'nickName'
p172
g73
sS'mpList'
p173
g34
(g35
g36
(lp174
g34
(citchat.storage.templates
MassivePlatform
p175
g39
(dp176
VUserName
p177
V@1edbf506bf970581fa34e5d9696697ae
p178
sVCity
p179
V\u6df1\u5733
p180
sVSnsFlag
p181
I0
sVDisplayName
p182
g52
sVUniFriend
p183
I0
sVMemberCount
p184
I0
sVOwnerUin
p185
I0
sVMemberList
p186
g50
sVAlias
p187
g52
sVPYQuanPin
p188
Vshenzhenshenghuoqingbaoju
p189
sVSignature
p190
V\u638c\u63e1\u66f4\u591a\u751f\u6d3b\u60c5\u62a5\uff0c\u505a\u4e00\u4e2a\u771f\u6b63\u7684\u751f\u6d3b\u5d07\u62dc\u8005\uff0c\u624d\u4f1a\u6709\u81ea\u5df1\u7684\u751f\u6d3b\u3002\u8fd9,\u5f88\u6df1\u5733\u3002
p191
sVRemarkPYInitial
p192
g52
sVContactFlag
p193
I3
sVUin
p194
I0
sVNickName
p195
V\u6df1\u5733\u751f\u6d3b\u60c5\u62a5\u5c40
p196
sVAppAccountFlag
p197
I0
sVVerifyFlag
p198
I24
sVRemarkPYQuanPin
p199
g52
sVHeadImgUrl
p200
V/cgi-bin/mmwebwx-bin/webwxgeticon?seq=664500485&username=@1edbf506bf970581fa34e5d9696697ae&skey=@crypt_853a97f_0a2b85689509f798981ed2978003af8a
p201
sVKeyWord
p202
Vgh_
p203
sVProvince
p204
V\u5e7f\u4e1c
p205
sVPYInitial
p206
VSZSHQBJ
p207
sVRemarkName
p208
g52
sVIsOwner
p209
I0
sVSex
p210
I0
sVStarFriend
p211
I0
sVHideInputBarFlag
p212
I0
sVChatRoomId
p213
I0
sVEncryChatRoomId
p214
g52
sVAttrStatus
p215
I0
sVStatues
p216
I0
stp217
Rp218
I1
bag34
(g175
g39
(dp219
VUserName
p220
V@5351b6c6938c3d5d00436edc67c1fa0d
p221
sVCity
p222
V\u6d77\u6dc0
p223
sVSnsFlag
p224
I0
sVDisplayName
p225
g52
sVUniFriend
p226
I0
sVMemberCount
p227
I0
sVOwnerUin
p228
I0
sVMemberList
p229
g50
sVAlias
p230
g52
sVPYQuanPin
p231
VAIkejidabenying
p232
sVSignature
p233
V\u6b22\u8fce\u6765\u5230AI\u79d1\u6280\u5927\u672c\u8425\u3002\u8fd9\u91cc\u6c47\u96c6\u4e86\u4f18\u79c0\u7684AI\u5b66\u4e60\u8005\uff0c\u6280\u672f\u5927\u5496\u548c\u4ea7\u4e1a\u9886\u8896\uff1b\u63d0\u4f9b\u63a5\u5730\u6c14\u7684\u5b9e\u6218\u8bfe\u7a0b\u3002\u5728\u8fd9\u91cc\u548c\u4f18\u79c0\u7684\u4eba\u4e00\u8d77\u6210\u957f\u3002
p234
sVRemarkPYInitial
p235
g52
sVContactFlag
p236
I3
sVUin
p237
I0
sVNickName
p238
VAI\u79d1\u6280\u5927\u672c\u8425
p239
sVAppAccountFlag
p240
I0
sVVerifyFlag
p241
I24
sVRemarkPYQuanPin
p242
g52
sVHeadImgUrl
p243
V/cgi-bin/mmwebwx-bin/webwxgeticon?seq=664500657&username=@5351b6c6938c3d5d00436edc67c1fa0d&skey=@crypt_853a97f_0a2b85689509f798981ed2978003af8a
p244
sVKeyWord
p245
Vgh_
p246
sVProvince
p247
V\u5317\u4eac
p248
sVPYInitial
p249
VAIKJDBY
p250
sVRemarkName
p251
g52
sVIsOwner
p252
I0
sVSex
p253
I0
sVStarFriend
p254
I0
sVHideInputBarFlag
p255
I0
sVChatRoomId
p256
I0
sVEncryChatRoomId
p257
g52
sVAttrStatus
p258
I0
sVStatues
p259
I0
stp260
Rp261
I1
bag34
(g175
g39
(dp262
VUserName
p263
V@e9fa3a503e688f8a6709eb572b20987b
p264
sVCity
p265
V\u53a6\u95e8
p266
sVSnsFlag
p267
I0
sVDisplayName
p268
g52
sVUniFriend
p269
I0
sVMemberCount
p270
I0
sVOwnerUin
p271
I0
sVMemberList
p272
g50
sVAlias
p273
g52
sVPYQuanPin
p274
Vwanchezhijia
p275
sVSignature
p276
V\u73a9\u8f66\u4e4b\u5bb6\uff08wanchezhijia.com\uff09\u6c47\u805a\u4e86\u5927\u91cf\u7684\u54c1\u724c\u6c7d\u8f66\u6539\u88c5\u6848\u4f8b\uff0c\u4e3a\u8f66\u53cb\u7684\u6539\u88c5\u8f66\u5b9e\u6218\u63d0\u4f9b\u501f\u9274\uff0c\u6211\u4eec\u7684\u76ee\u6807\u662f\u6253\u9020\u66f4\u4e13\u4e1a\u7684\u73a9\u8f66\u3001\u6539\u88c5\u8f66\u4ea4\u6d41\u5e73\u53f0\u7f51\u7ad9\uff0c\u4fc3\u8fdb\u56fd\u5185\u6539\u88c5\u6587\u5316\u7684\u5065\u5eb7\u53d1\u5c55\u3002\uff08\u5408\u4f5cqq2574416381\uff09
p277
sVRemarkPYInitial
p278
g52
sVContactFlag
p279
I3
sVUin
p280
I0
sVNickName
p281
V\u73a9\u8f66\u4e4b\u5bb6
p282
sVAppAccountFlag
p283
I0
sVVerifyFlag
p284
I24
sVRemarkPYQuanPin
p285
g52
sVHeadImgUrl
p286
V/cgi-bin/mmwebwx-bin/webwxgeticon?seq=664500275&username=@e9fa3a503e688f8a6709eb572b20987b&skey=@crypt_853a97f_0a2b85689509f798981ed2978003af8a
p287
sVKeyWord
p288
Vgh_
p289
sVProvince
p290
V\u798f\u5efa
p291
sVPYInitial
p292
VWCZJ
p293
sVRemarkName
p294
g52
sVIsOwner
p295
I0
sVSex
p296
I0
sVStarFriend
p297
I0
sVHideInputBarFlag
p298
I0
sVChatRoomId
p299
I0
sVEncryChatRoomId
p300
g52
sVAttrStatus
p301
I0
sVStatues
p302
I0
stp303
Rp304
I1
bag34
(g175
g39
(dp305
VUserName
p306
V@b73b72773ebbb3dfe4d1e2de2f1b8a8c
p307
sVCity
p308
V\u5df4\u4e2d
p309
sVSnsFlag
p310
I0
sVDisplayName
p311
g52
sVUniFriend
p312
I0
sVMemberCount
p313
I0
sVOwnerUin
p314
I0
sVMemberList
p315
g50
sVAlias
p316
g52
sVPYQuanPin
p317
VnishisheiIloveyou
p318
sVSignature
p319
Vim ok
p320
sVRemarkPYInitial
p321
g52
sVContactFlag
p322
I3
sVUin
p323
I0
sVNickName
p324
V\u4f60\u662f\u8c01Iloveyou
p325
sVAppAccountFlag
p326
I0
sVVerifyFlag
p327
I8
sVRemarkPYQuanPin
p328
g52
sVHeadImgUrl
p329
V/cgi-bin/mmwebwx-bin/webwxgeticon?seq=664500547&username=@b73b72773ebbb3dfe4d1e2de2f1b8a8c&skey=@crypt_853a97f_0a2b85689509f798981ed2978003af8a
p330
sVKeyWord
p331
Vgh_
p332
sVProvince
p333
V\u56db\u5ddd
p334
sVPYInitial
p335
VNSSILOVEYOU
p336
sVRemarkName
p337
g52
sVIsOwner
p338
I0
sVSex
p339
I0
sVStarFriend
p340
I0
sVHideInputBarFlag
p341
I0
sVChatRoomId
p342
I0
sVEncryChatRoomId
p343
g52
sVAttrStatus
p344
I0
sVStatues
p345
I0
stp346
Rp347
I1
batp348
Rp349
I1
bssS'loginInfo'
p350
(dp351
S'SyncKey'
p352
(dp353
VCount
p354
I4
sVList
p355
(lp356
(dp357
VVal
p358
I664500664
sVKey
p359
I1
sa(dp360
VVal
p361
I664500726
sVKey
p362
I2
sa(dp363
VVal
p364
I664500670
sVKey
p365
I3
sa(dp366
VVal
p367
I1506318276
sVKey
p368
I1000
sassS'syncUrl'
p369
S'https://webpush.wx.qq.com/cgi-bin/mmwebwx-bin'
p370
sS'skey'
p371
V@crypt_853a97f_0a2b85689509f798981ed2978003af8a
p372
sS'wxuin'
p373
V360625759
p374
sS'synckey'
p375
S'1_664500664|2_664500726|3_664500670|1000_1506318276'
p376
sS'url'
p377
Vhttps://wx.qq.com/cgi-bin/mmwebwx-bin
p378
sS'pass_ticket'
p379
VeV27yOdP%2FDu85BjfmsULKJu692kHc0YVuqTck4pEgqdatWDk2YDUR%2Ftcx7xSE3nB
p380
sS'wxsid'
p381
VhK8q6Sd2kzJGAq+Z
p382
sS'BaseRequest'
p383
(dp384
g54
g374
sS'Skey'
p385
g372
sS'DeviceID'
p386
g380
sS'Sid'
p387
g382
ssS'deviceid'
p388
S'e327296178723314'
p389
sS'fileUrl'
p390
S'https://file.wx.qq.com/cgi-bin/mmwebwx-bin'
p391
sS'InviteStartCount'
p392
I40
sS'User'
p393
g34
(g38
g39
(dp394
g41
g31
sg42
g43
sg44
g43
sg45
I0
sg47
g50
sg51
g52
sg53
g52
sg77
I2
sg55
I0
sg56
I0
sg57
g43
sg58
g43
sg59
g52
sg60
g52
sg61
I0
sg62
I0
sg63
I1
sg64
g43
sg65
I0
sg68
I0
sg66
I1
sg67
I0
sg46
I0
sg69
g43
sg70
g52
sg71
I0
sg72
g73
sg74
g52
sg75
g76
sg54
I360625759
sg78
I0
sg79
I0
stp395
Rp396
I1
bss.