(dp0
S'cookies'
p1
(dp2
sS'version'
p3
S'1.3.9'
p4
sS'storage'
p5
(dp6
S'userName'
p7
V@33b154db128c23f3ab1ab101b1852fe6
p8
sS'lastInputUserName'
p9
NsS'memberList'
p10
ccopy_reg
_reconstructor
p11
(citchat.storage.templates
ContactList
p12
c__builtin__
list
p13
(lp14
tp15
Rp16
I1
bsS'chatroomList'
p17
g11
(g12
g13
(lp18
tp19
Rp20
I1
bsS'nickName'
p21
V\u6e05\u6668\u7684\u98ce\uff08\u5ddd\uff09
p22
sS'mpList'
p23
g11
(g12
g13
(lp24
tp25
Rp26
I1
bssS'loginInfo'
p27
(dp28
S'SyncKey'
p29
(dp30
VCount
p31
I8
sVList
p32
(lp33
(dp34
VVal
p35
I674836875
sVKey
p36
I1
sa(dp37
VVal
p38
I674836955
sVKey
p39
I2
sa(dp40
VVal
p41
I674836806
sVKey
p42
I3
sa(dp43
VVal
p44
I674836792
sVKey
p45
I11
sa(dp46
VVal
p47
I674836725
sVKey
p48
I13
sa(dp49
VVal
p50
I1506357552
sVKey
p51
I201
sa(dp52
VVal
p53
I1506335942
sVKey
p54
I1000
sa(dp55
VVal
p56
I1506335973
sVKey
p57
I1001
sassS'syncUrl'
p58
S'https://webpush.wx.qq.com/cgi-bin/mmwebwx-bin'
p59
sS'skey'
p60
V@crypt_9289f9e8_e80d85e348de3c25979400a68df01fda
p61
sS'wxuin'
p62
V1212547320
p63
sS'synckey'
p64
S'1_674836875|2_674836955|3_674836806|11_674836792|13_674836725|201_1506357552|1000_1506335942|1001_1506335973'
p65
sS'url'
p66
Vhttps://wx.qq.com/cgi-bin/mmwebwx-bin
p67
sS'pass_ticket'
p68
VronE%2BaUUKTxp0JoSkwGhcNgGbd%2FqmBvatVTC5riFrLaS8T06Ww%2F7x3x9IZtqPQue
p69
sS'wxsid'
p70
VI5G77fuls9zbQHF9
p71
sS'BaseRequest'
p72
(dp73
S'Sid'
p74
g71
sS'Skey'
p75
g61
sS'DeviceID'
p76
g69
sS'Uin'
p77
g63
ssS'deviceid'
p78
S'e411265844416474'
p79
sS'fileUrl'
p80
S'https://file.wx.qq.com/cgi-bin/mmwebwx-bin'
p81
sS'InviteStartCount'
p82
I40
sS'User'
p83
g11
(citchat.storage.templates
User
p84
c__builtin__
dict
p85
(dp86
S'UserName'
p87
g8
sS'City'
p88
S''
p89
sS'DisplayName'
p90
g89
sS'UniFriend'
p91
I0
sS'MemberList'
p92
g11
(g12
g13
(lp93
tp94
Rp95
I1
bsS'PYQuanPin'
p96
V
p97
sS'RemarkPYInitial'
p98
g97
sS'Sex'
p99
I1
sS'AppAccountFlag'
p100
I0
sS'VerifyFlag'
p101
I0
sS'Province'
p102
g89
sS'KeyWord'
p103
g89
sS'RemarkName'
p104
g97
sS'PYInitial'
p105
g97
sS'ChatRoomId'
p106
I0
sS'HideInputBarFlag'
p107
I0
sVHeadImgFlag
p108
I1
sS'EncryChatRoomId'
p109
g89
sS'AttrStatus'
p110
I0
sVWebWxPluginSwitch
p111
I0
sS'SnsFlag'
p112
I17
sS'MemberCount'
p113
I0
sS'OwnerUin'
p114
I0
sS'Alias'
p115
g89
sS'Signature'
p116
g97
sS'ContactFlag'
p117
I0
sS'NickName'
p118
g22
sS'RemarkPYQuanPin'
p119
g97
sS'HeadImgUrl'
p120
V/cgi-bin/mmwebwx-bin/webwxgeticon?seq=852885555&username=@33b154db128c23f3ab1ab101b1852fe6&skey=@crypt_9289f9e8_e80d85e348de3c25979400a68df01fda
p121
sg77
I1212547320
sS'StarFriend'
p122
I0
sS'Statues'
p123
I0
stp124
Rp125
I1
bss.