(dp0
S'cookies'
p1
(dp2
S'webwx_data_ticket'
p3
S'gSfOayGTZPrkhTG7wwBop+o2'
p4
sS'wxuin'
p5
S'360625759'
p6
sS'webwxuvid'
p7
S'b751cbbb883337aba43a364882e16035cc563d173f198f072814dac0d7a6d4e0'
p8
sS'webwx_auth_ticket'
p9
S'CIsBEPbT294IGmCKhux4B5qWuEcPiJUxzfTImgvt5sjbyurqt67rrUeD25e94bB8LQA0CEetuZmYtnUJrhcGMqpFlfHsyMb/HdcoFsPmWWYKH0NHa3Tdnmo/EaUPqKJz8unboKyugRjil1E='
p10
sS'wxloadtime'
p11
S'1506412291_expired'
p12
sS'wxpluginkey'
p13
S'1506386162'
p14
sS'wxsid'
p15
S'9WsYnvfVoN20f4Tq'
p16
sS'mm_lang'
p17
S'zh_CN'
p18
ssS'version'
p19
S'1.3.9'
p20
sS'storage'
p21
(dp22
S'userName'
p23
V@28bf15330ee8274da77babaaf469580085baba63bc94d28987274a3c67656e42
p24
sS'lastInputUserName'
p25
NsS'memberList'
p26
ccopy_reg
_reconstructor
p27
(citchat.storage.templates
ContactList
p28
c__builtin__
list
p29
(lp30
g27
(citchat.storage.templates
User
p31
c__builtin__
dict
p32
(dp33
S'UserName'
p34
g24
sS'City'
p35
S''
p36
sS'DisplayName'
p37
g36
sS'UniFriend'
p38
I0
sS'OwnerUin'
p39
I0
sS'MemberList'
p40
g27
(g28
g29
(lp41
tp42
Rp43
I1
bsS'PYQuanPin'
p44
V
p45
sS'RemarkPYInitial'
p46
g45
sS'Uin'
p47
I360625759
sS'AppAccountFlag'
p48
I0
sS'VerifyFlag'
p49
I0
sS'Province'
p50
g36
sS'KeyWord'
p51
g36
sS'RemarkName'
p52
g45
sS'PYInitial'
p53
g45
sS'ChatRoomId'
p54
I0
sS'HideInputBarFlag'
p55
I0
sVHeadImgFlag
p56
I1
sS'EncryChatRoomId'
p57
g36
sS'AttrStatus'
p58
I0
sS'SnsFlag'
p59
I1
sS'MemberCount'
p60
I0
sVWebWxPluginSwitch
p61
I0
sS'Alias'
p62
g36
sS'Signature'
p63
g45
sS'ContactFlag'
p64
I0
sS'NickName'
p65
V\u5728\u8def\u4e0a
p66
sS'RemarkPYQuanPin'
p67
g45
sS'HeadImgUrl'
p68
V/cgi-bin/mmwebwx-bin/webwxgeticon?seq=515186252&username=@28bf15330ee8274da77babaaf469580085baba63bc94d28987274a3c67656e42&skey=@crypt_853a97f_dd509f0502272f272dff78c49c110228
p69
sS'Sex'
p70
I2
sS'StarFriend'
p71
I0
sS'Statues'
p72
I0
stp73
Rp74
I1
bag27
(g31
g32
(dp75
VUserName
p76
V@f7d01012dad0065e584f3a58820245a0
p77
sVCity
p78
V\u5e7f\u5dde
p79
sVSnsFlag
p80
I17
sVDisplayName
p81
g45
sVUniFriend
p82
I0
sVMemberCount
p83
I0
sVOwnerUin
p84
I0
sVMemberList
p85
g43
sVAlias
p86
g45
sVPYQuanPin
p87
Vqingchendefengchuan
p88
sVSignature
p89
g45
sVRemarkPYInitial
p90
g45
sVContactFlag
p91
I3
sVUin
p92
I0
sVNickName
p93
V\u6e05\u6668\u7684\u98ce\uff08\u5ddd\uff09
p94
sVAppAccountFlag
p95
I0
sVVerifyFlag
p96
I0
sVRemarkPYQuanPin
p97
g45
sVHeadImgUrl
p98
V/cgi-bin/mmwebwx-bin/webwxgeticon?seq=664500412&username=@f7d01012dad0065e584f3a58820245a0&skey=@crypt_853a97f_dd509f0502272f272dff78c49c110228
p99
sVKeyWord
p100
Vmen
p101
sVProvince
p102
V\u5e7f\u4e1c
p103
sVPYInitial
p104
VQCDFC
p105
sVRemarkName
p106
g45
sVIsOwner
p107
I0
sVSex
p108
I1
sVStarFriend
p109
I0
sVHideInputBarFlag
p110
I0
sVChatRoomId
p111
I0
sVEncryChatRoomId
p112
g45
sVAttrStatus
p113
I12327
sVStatues
p114
I0
stp115
Rp116
I1
bag27
(g31
g32
(dp117
VUserName
p118
V@43b431fdb67c3b196a0ad3288d5f9cc7d2cd6dcffbd1fbd6337a666d71b5bd73
p119
sVCity
p120
V\u6df1\u5733
p121
sVSnsFlag
p122
I1
sVDisplayName
p123
g45
sVUniFriend
p124
I0
sVMemberCount
p125
I0
sVOwnerUin
p126
I0
sVMemberList
p127
g43
sVAlias
p128
g45
sVPYQuanPin
p129
Vlipeiying
p130
sVSignature
p131
V\u5982\u679c\u521a\u70c8\u662f\u5728\u54ed\u6ce3\u4e2d\u953b\u70bc\u51fa\u6765\u7684\uff0c\u54ea\u4e48\u8ba9\u6211\u54ed\u4e2a\u660f\u5929\u6697\u5730\u5427
p132
sVRemarkPYInitial
p133
g45
sVContactFlag
p134
I3
sVUin
p135
I0
sVNickName
p136
V\u674e\u6c9b\u9896
p137
sVAppAccountFlag
p138
I0
sVVerifyFlag
p139
I0
sVRemarkPYQuanPin
p140
g45
sVHeadImgUrl
p141
V/cgi-bin/mmwebwx-bin/webwxgeticon?seq=664500472&username=@43b431fdb67c3b196a0ad3288d5f9cc7d2cd6dcffbd1fbd6337a666d71b5bd73&skey=@crypt_853a97f_dd509f0502272f272dff78c49c110228
p142
sVKeyWord
p143
g45
sVProvince
p144
V\u5e7f\u4e1c
p145
sVPYInitial
p146
VLPY
p147
sVRemarkName
p148
g45
sVIsOwner
p149
I0
sVSex
p150
I2
sVStarFriend
p151
I0
sVHideInputBarFlag
p152
I0
sVChatRoomId
p153
I0
sVEncryChatRoomId
p154
g45
sVAttrStatus
p155
I102437
sVStatues
p156
I0
stp157
Rp158
I1
batp159
Rp160
I1
bsS'chatroomList'
p161
g27
(g28
g29
(lp162
tp163
Rp164
I1
bsS'nickName'
p165
g66
sS'mpList'
p166
g27
(g28
g29
(lp167
g27
(citchat.storage.templates
MassivePlatform
p168
g32
(dp169
VUserName
p170
V@4526d0152f4cbfc9b5da814c6f5f9c8a
p171
sVCity
p172
V\u6d77\u6dc0
p173
sVSnsFlag
p174
I0
sVDisplayName
p175
g45
sVUniFriend
p176
I0
sVMemberCount
p177
I0
sVOwnerUin
p178
I0
sVMemberList
p179
g43
sVAlias
p180
g45
sVPYQuanPin
p181
VAIkejidabenying
p182
sVSignature
p183
V\u6b22\u8fce\u6765\u5230AI\u79d1\u6280\u5927\u672c\u8425\u3002\u8fd9\u91cc\u6c47\u96c6\u4e86\u4f18\u79c0\u7684AI\u5b66\u4e60\u8005\uff0c\u6280\u672f\u5927\u5496\u548c\u4ea7\u4e1a\u9886\u8896\uff1b\u63d0\u4f9b\u63a5\u5730\u6c14\u7684\u5b9e\u6218\u8bfe\u7a0b\u3002\u5728\u8fd9\u91cc\u548c\u4f18\u79c0\u7684\u4eba\u4e00\u8d77\u6210\u957f\u3002
p184
sVRemarkPYInitial
p185
g45
sVContactFlag
p186
I3
sVUin
p187
I0
sVNickName
p188
VAI\u79d1\u6280\u5927\u672c\u8425
p189
sVAppAccountFlag
p190
I0
sVVerifyFlag
p191
I24
sVRemarkPYQuanPin
p192
g45
sVHeadImgUrl
p193
V/cgi-bin/mmwebwx-bin/webwxgeticon?seq=664500657&username=@4526d0152f4cbfc9b5da814c6f5f9c8a&skey=@crypt_853a97f_dd509f0502272f272dff78c49c110228
p194
sVKeyWord
p195
Vgh_
p196
sVProvince
p197
V\u5317\u4eac
p198
sVPYInitial
p199
VAIKJDBY
p200
sVRemarkName
p201
g45
sVIsOwner
p202
I0
sVSex
p203
I0
sVStarFriend
p204
I0
sVHideInputBarFlag
p205
I0
sVChatRoomId
p206
I0
sVEncryChatRoomId
p207
g45
sVAttrStatus
p208
I0
sVStatues
p209
I0
stp210
Rp211
I1
bag27
(g168
g32
(dp212
VUserName
p213
V@ede2a2cf36f8a01580b7cbd2c7739331
p214
sVCity
p215
V\u53a6\u95e8
p216
sVSnsFlag
p217
I0
sVDisplayName
p218
g45
sVUniFriend
p219
I0
sVMemberCount
p220
I0
sVOwnerUin
p221
I0
sVMemberList
p222
g43
sVAlias
p223
g45
sVPYQuanPin
p224
Vwanchezhijia
p225
sVSignature
p226
V\u73a9\u8f66\u4e4b\u5bb6\uff08wanchezhijia.com\uff09\u6c47\u805a\u4e86\u5927\u91cf\u7684\u54c1\u724c\u6c7d\u8f66\u6539\u88c5\u6848\u4f8b\uff0c\u4e3a\u8f66\u53cb\u7684\u6539\u88c5\u8f66\u5b9e\u6218\u63d0\u4f9b\u501f\u9274\uff0c\u6211\u4eec\u7684\u76ee\u6807\u662f\u6253\u9020\u66f4\u4e13\u4e1a\u7684\u73a9\u8f66\u3001\u6539\u88c5\u8f66\u4ea4\u6d41\u5e73\u53f0\u7f51\u7ad9\uff0c\u4fc3\u8fdb\u56fd\u5185\u6539\u88c5\u6587\u5316\u7684\u5065\u5eb7\u53d1\u5c55\u3002\uff08\u5408\u4f5cqq2574416381\uff09
p227
sVRemarkPYInitial
p228
g45
sVContactFlag
p229
I3
sVUin
p230
I0
sVNickName
p231
V\u73a9\u8f66\u4e4b\u5bb6
p232
sVAppAccountFlag
p233
I0
sVVerifyFlag
p234
I24
sVRemarkPYQuanPin
p235
g45
sVHeadImgUrl
p236
V/cgi-bin/mmwebwx-bin/webwxgeticon?seq=664500275&username=@ede2a2cf36f8a01580b7cbd2c7739331&skey=@crypt_853a97f_dd509f0502272f272dff78c49c110228
p237
sVKeyWord
p238
Vgh_
p239
sVProvince
p240
V\u798f\u5efa
p241
sVPYInitial
p242
VWCZJ
p243
sVRemarkName
p244
g45
sVIsOwner
p245
I0
sVSex
p246
I0
sVStarFriend
p247
I0
sVHideInputBarFlag
p248
I0
sVChatRoomId
p249
I0
sVEncryChatRoomId
p250
g45
sVAttrStatus
p251
I0
sVStatues
p252
I0
stp253
Rp254
I1
bag27
(g168
g32
(dp255
VUserName
p256
V@02a9c432b370f1fdcb13774be825c8ee
p257
sVCity
p258
V\u6df1\u5733
p259
sVSnsFlag
p260
I0
sVDisplayName
p261
g45
sVUniFriend
p262
I0
sVMemberCount
p263
I0
sVOwnerUin
p264
I0
sVMemberList
p265
g43
sVAlias
p266
g45
sVPYQuanPin
p267
Vshenzhenshenghuoqingbaoju
p268
sVSignature
p269
V\u638c\u63e1\u66f4\u591a\u751f\u6d3b\u60c5\u62a5\uff0c\u505a\u4e00\u4e2a\u771f\u6b63\u7684\u751f\u6d3b\u5d07\u62dc\u8005\uff0c\u624d\u4f1a\u6709\u81ea\u5df1\u7684\u751f\u6d3b\u3002\u8fd9,\u5f88\u6df1\u5733\u3002
p270
sVRemarkPYInitial
p271
g45
sVContactFlag
p272
I3
sVUin
p273
I0
sVNickName
p274
V\u6df1\u5733\u751f\u6d3b\u60c5\u62a5\u5c40
p275
sVAppAccountFlag
p276
I0
sVVerifyFlag
p277
I24
sVRemarkPYQuanPin
p278
g45
sVHeadImgUrl
p279
V/cgi-bin/mmwebwx-bin/webwxgeticon?seq=664500485&username=@02a9c432b370f1fdcb13774be825c8ee&skey=@crypt_853a97f_dd509f0502272f272dff78c49c110228
p280
sVKeyWord
p281
Vgh_
p282
sVProvince
p283
V\u5e7f\u4e1c
p284
sVPYInitial
p285
VSZSHQBJ
p286
sVRemarkName
p287
g45
sVIsOwner
p288
I0
sVSex
p289
I0
sVStarFriend
p290
I0
sVHideInputBarFlag
p291
I0
sVChatRoomId
p292
I0
sVEncryChatRoomId
p293
g45
sVAttrStatus
p294
I0
sVStatues
p295
I0
stp296
Rp297
I1
bag27
(g168
g32
(dp298
VUserName
p299
V@242bfeb96b26b179a5e400af32b997bb
p300
sVCity
p301
V\u5df4\u4e2d
p302
sVSnsFlag
p303
I0
sVDisplayName
p304
g45
sVUniFriend
p305
I0
sVMemberCount
p306
I0
sVOwnerUin
p307
I0
sVMemberList
p308
g43
sVAlias
p309
g45
sVPYQuanPin
p310
VnishisheiIloveyou
p311
sVSignature
p312
Vim ok
p313
sVRemarkPYInitial
p314
g45
sVContactFlag
p315
I3
sVUin
p316
I0
sVNickName
p317
V\u4f60\u662f\u8c01Iloveyou
p318
sVAppAccountFlag
p319
I0
sVVerifyFlag
p320
I8
sVRemarkPYQuanPin
p321
g45
sVHeadImgUrl
p322
V/cgi-bin/mmwebwx-bin/webwxgeticon?seq=664500547&username=@242bfeb96b26b179a5e400af32b997bb&skey=@crypt_853a97f_dd509f0502272f272dff78c49c110228
p323
sVKeyWord
p324
Vgh_
p325
sVProvince
p326
V\u56db\u5ddd
p327
sVPYInitial
p328
VNSSILOVEYOU
p329
sVRemarkName
p330
g45
sVIsOwner
p331
I0
sVSex
p332
I0
sVStarFriend
p333
I0
sVHideInputBarFlag
p334
I0
sVChatRoomId
p335
I0
sVEncryChatRoomId
p336
g45
sVAttrStatus
p337
I0
sVStatues
p338
I0
stp339
Rp340
I1
batp341
Rp342
I1
bssS'loginInfo'
p343
(dp344
S'SyncKey'
p345
(dp346
VCount
p347
I8
sVList
p348
(lp349
(dp350
VVal
p351
I664500854
sVKey
p352
I1
sa(dp353
VVal
p354
I664500938
sVKey
p355
I2
sa(dp356
VVal
p357
I664500670
sVKey
p358
I3
sa(dp359
VVal
p360
I664500038
sVKey
p361
I11
sa(dp362
VVal
p363
I664500038
sVKey
p364
I13
sa(dp365
VVal
p366
I1506412334
sVKey
p367
I201
sa(dp368
VVal
p369
I1506386162
sVKey
p370
I1000
sa(dp371
VVal
p372
I1506386193
sVKey
p373
I1001
sassS'syncUrl'
p374
S'https://webpush.wx.qq.com/cgi-bin/mmwebwx-bin'
p375
sS'skey'
p376
V@crypt_853a97f_dd509f0502272f272dff78c49c110228
p377
sS'wxuin'
p378
V360625759
p379
sS'synckey'
p380
S'1_664500854|2_664500938|3_664500670|11_664500038|13_664500038|201_1506412334|1000_1506386162|1001_1506386193'
p381
sS'url'
p382
Vhttps://wx.qq.com/cgi-bin/mmwebwx-bin
p383
sS'pass_ticket'
p384
VB2aDByykj9jRA71ZxnbjlTCPNm0vXBU%2FOu3znL3IuVrxcVLtT3kWxPpFRxEhr4rf
p385
sS'wxsid'
p386
V9WsYnvfVoN20f4Tq
p387
sS'InviteStartCount'
p388
I40
sS'deviceid'
p389
S'e801089963214631'
p390
sS'fileUrl'
p391
S'https://file.wx.qq.com/cgi-bin/mmwebwx-bin'
p392
sS'BaseRequest'
p393
(dp394
g47
g379
sS'Skey'
p395
g377
sS'DeviceID'
p396
g385
sS'Sid'
p397
g387
ssS'User'
p398
g27
(g31
g32
(dp399
g34
g24
sg35
g36
sg37
g36
sg38
I0
sg40
g43
sg44
g45
sg46
g45
sg70
I2
sg48
I0
sg49
I0
sg50
g36
sg51
g36
sg52
g45
sg53
g45
sg54
I0
sg55
I0
sg56
I1
sg57
g36
sg58
I0
sg61
I0
sg59
I1
sg60
I0
sg39
I0
sg62
g36
sg63
g45
sg64
I0
sg65
g66
sg67
g45
sg68
g69
sg47
I360625759
sg71
I0
sg72
I0
stp400
Rp401
I1
bss.